target datalayout = "e-m:e-p270:32:32-p271:32:32-p272:64:64-i64:64-i128:128-f80:128-n8:16:32:64-S128"
target triple = "x86_64-pc-linux-gnu"

@.str.87 = private unnamed_addr constant [15 x i8] c"EI_SINGLE_STEP\00", align 1
@.str.88 = private unnamed_addr constant [14 x i8] c"EI_BREAKPOINT\00", align 1
@.str.89 = private unnamed_addr constant [13 x i8] c"EI_FRAME_POP\00", align 1
@.str.90 = private unnamed_addr constant [13 x i8] c"EI_EXCEPTION\00", align 1
@.str.91 = private unnamed_addr constant [16 x i8] c"EI_THREAD_START\00", align 1
@.str.92 = private unnamed_addr constant [14 x i8] c"EI_THREAD_END\00", align 1
@.str.93 = private unnamed_addr constant [17 x i8] c"EI_CLASS_PREPARE\00", align 1
@.str.94 = private unnamed_addr constant [16 x i8] c"EI_CLASS_UNLOAD\00", align 1
@.str.95 = private unnamed_addr constant [14 x i8] c"EI_CLASS_LOAD\00", align 1
@.str.96 = private unnamed_addr constant [16 x i8] c"EI_FIELD_ACCESS\00", align 1
@.str.97 = private unnamed_addr constant [22 x i8] c"EI_FIELD_MODIFICATION\00", align 1
@.str.98 = private unnamed_addr constant [19 x i8] c"EI_EXCEPTION_CATCH\00", align 1
@.str.99 = private unnamed_addr constant [16 x i8] c"EI_METHOD_ENTRY\00", align 1
@.str.100 = private unnamed_addr constant [15 x i8] c"EI_METHOD_EXIT\00", align 1
@.str.101 = private unnamed_addr constant [11 x i8] c"EI_VM_INIT\00", align 1
@.str.102 = private unnamed_addr constant [12 x i8] c"EI_VM_DEATH\00", align 1
@.str.103 = private unnamed_addr constant [24 x i8] c"EI_VIRTUAL_THREAD_START\00", align 1
@.str.104 = private unnamed_addr constant [22 x i8] c"EI_VIRTUAL_THREAD_END\00", align 1
@.str.105 = private unnamed_addr constant [14 x i8] c"EVENT_unknown\00", align 1

; Function Attrs: nounwind uwtable
define hidden ptr @eventText(i32 noundef %0) #0 {
  %2 = alloca ptr, align 8
  %3 = alloca i32, align 4
  store i32 %0, ptr %3, align 4
  %4 = load i32, ptr %3, align 4
  switch i32 %4, label %23 [
    i32 1, label %5
    i32 2, label %6
    i32 3, label %7
    i32 4, label %8
    i32 5, label %9
    i32 6, label %10
    i32 7, label %11
    i32 8, label %12
    i32 9, label %13
    i32 10, label %14
    i32 11, label %15
    i32 12, label %16
    i32 13, label %17
    i32 14, label %18
    i32 19, label %19
    i32 20, label %20
    i32 21, label %21
    i32 22, label %22
  ]

5:                                                ; preds = %1
  store ptr @.str.87, ptr %2, align 8
  br label %24

6:                                                ; preds = %1
  store ptr @.str.88, ptr %2, align 8
  br label %24

7:                                                ; preds = %1
  store ptr @.str.89, ptr %2, align 8
  br label %24

8:                                                ; preds = %1
  store ptr @.str.90, ptr %2, align 8
  br label %24

9:                                                ; preds = %1
  store ptr @.str.91, ptr %2, align 8
  br label %24

10:                                               ; preds = %1
  store ptr @.str.92, ptr %2, align 8
  br label %24

11:                                               ; preds = %1
  store ptr @.str.93, ptr %2, align 8
  br label %24

12:                                               ; preds = %1
  store ptr @.str.94, ptr %2, align 8
  br label %24

13:                                               ; preds = %1
  store ptr @.str.95, ptr %2, align 8
  br label %24

14:                                               ; preds = %1
  store ptr @.str.96, ptr %2, align 8
  br label %24

15:                                               ; preds = %1
  store ptr @.str.97, ptr %2, align 8
  br label %24

16:                                               ; preds = %1
  store ptr @.str.98, ptr %2, align 8
  br label %24

17:                                               ; preds = %1
  store ptr @.str.99, ptr %2, align 8
  br label %24

18:                                               ; preds = %1
  store ptr @.str.100, ptr %2, align 8
  br label %24

19:                                               ; preds = %1
  store ptr @.str.101, ptr %2, align 8
  br label %24

20:                                               ; preds = %1
  store ptr @.str.102, ptr %2, align 8
  br label %24

21:                                               ; preds = %1
  store ptr @.str.103, ptr %2, align 8
  br label %24

22:                                               ; preds = %1
  store ptr @.str.104, ptr %2, align 8
  br label %24

23:                                               ; preds = %1
  store ptr @.str.105, ptr %2, align 8
  br label %24

24:                                               ; preds = %23, %22, %21, %20, %19, %18, %17, %16, %15, %14, %13, %12, %11, %10, %9, %8, %7, %6, %5
  %25 = load ptr, ptr %2, align 8
  ret ptr %25
}